; Function Attrs: nounwind uwtable
define noundef i32 @evbuffer_remove_cb_entry(ptr noundef readonly captures(none) %0, ptr noundef %1) local_unnamed_addr #1 {
  %3 = getelementptr inbounds nuw i8, ptr %0, i64 56
  %4 = load ptr, ptr %3, align 8
  %.not = icmp eq ptr %4, null
  br i1 %.not, label %8, label %5

5:                                                ; preds = %2
  %6 = load ptr, ptr getelementptr inbounds nuw (i8, ptr @evthread_lock_fns_, i64 24), align 8
  %7 = tail call i32 %6(i32 noundef 0, ptr noundef nonnull %4) #16
  br label %8

8:                                                ; preds = %2, %5
  %9 = load ptr, ptr %1, align 8
  %.not12 = icmp eq ptr %9, null
  %.phi.trans.insert = getelementptr inbounds nuw i8, ptr %1, i64 8
  %.pre14 = load ptr, ptr %.phi.trans.insert, align 8
  br i1 %.not12, label %._crit_edge, label %10

10:                                               ; preds = %8
  %11 = getelementptr inbounds nuw i8, ptr %9, i64 8
  store ptr %.pre14, ptr %11, align 8
  %.pre = load ptr, ptr %1, align 8
  br label %._crit_edge

._crit_edge:                                      ; preds = %8, %10
  %12 = phi ptr [ %.pre, %10 ], [ null, %8 ]
  store ptr %12, ptr %.pre14, align 8
  %13 = load ptr, ptr %3, align 8
  %.not13 = icmp eq ptr %13, null
  br i1 %.not13, label %17, label %14

14:                                               ; preds = %._crit_edge
  %15 = load ptr, ptr getelementptr inbounds nuw (i8, ptr @evthread_lock_fns_, i64 32), align 8
  %16 = tail call i32 %15(i32 noundef 0, ptr noundef nonnull %13) #16
  br label %17

17:                                               ; preds = %14, %._crit_edge
  tail call void @event_mm_free_(ptr noundef nonnull %1) #16
  ret i32 0
}